target datalayout = "e-m:e-p270:32:32-p271:32:32-p272:64:64-i64:64-i128:128-f80:128-n8:16:32:64-S128"
target triple = "x86_64-pc-linux-gnu"

; Function Attrs: nounwind uwtable
define internal i32 @try_8x8basis_c(ptr noundef %0, ptr noundef %1, ptr noundef %2, i32 noundef %3) #1 {
  %5 = alloca ptr, align 8
  %6 = alloca ptr, align 8
  %7 = alloca ptr, align 8
  %8 = alloca i32, align 4
  %9 = alloca i32, align 4
  %10 = alloca i32, align 4
  %11 = alloca i32, align 4
  %12 = alloca i32, align 4
  store ptr %0, ptr %5, align 8, !tbaa !18
  store ptr %1, ptr %6, align 8, !tbaa !18
  store ptr %2, ptr %7, align 8, !tbaa !18
  store i32 %3, ptr %8, align 4, !tbaa !20
  call void @llvm.lifetime.start.p0(i64 4, ptr %9) #7
  call void @llvm.lifetime.start.p0(i64 4, ptr %10) #7
  store i32 0, ptr %10, align 4, !tbaa !20
  store i32 0, ptr %9, align 4, !tbaa !20
  br label %13

13:                                               ; preds = %52, %4
  %14 = load i32, ptr %9, align 4, !tbaa !20
  %15 = icmp slt i32 %14, 64
  br i1 %15, label %16, label %55

16:                                               ; preds = %13
  call void @llvm.lifetime.start.p0(i64 4, ptr %11) #7
  %17 = load ptr, ptr %5, align 8, !tbaa !18
  %18 = load i32, ptr %9, align 4, !tbaa !20
  %19 = sext i32 %18 to i64
  %20 = getelementptr inbounds i16, ptr %17, i64 %19
  %21 = load i16, ptr %20, align 2, !tbaa !22
  %22 = sext i16 %21 to i32
  %23 = load ptr, ptr %7, align 8, !tbaa !18
  %24 = load i32, ptr %9, align 4, !tbaa !20
  %25 = sext i32 %24 to i64
  %26 = getelementptr inbounds i16, ptr %23, i64 %25
  %27 = load i16, ptr %26, align 2, !tbaa !22
  %28 = sext i16 %27 to i32
  %29 = load i32, ptr %8, align 4, !tbaa !20
  %30 = mul nsw i32 %28, %29
  %31 = add nsw i32 %30, 512
  %32 = ashr i32 %31, 10
  %33 = add nsw i32 %22, %32
  store i32 %33, ptr %11, align 4, !tbaa !20
  call void @llvm.lifetime.start.p0(i64 4, ptr %12) #7
  %34 = load ptr, ptr %6, align 8, !tbaa !18
  %35 = load i32, ptr %9, align 4, !tbaa !20
  %36 = sext i32 %35 to i64
  %37 = getelementptr inbounds i16, ptr %34, i64 %36
  %38 = load i16, ptr %37, align 2, !tbaa !22
  %39 = sext i16 %38 to i32
  store i32 %39, ptr %12, align 4, !tbaa !20
  %40 = load i32, ptr %11, align 4, !tbaa !20
  %41 = ashr i32 %40, 6
  store i32 %41, ptr %11, align 4, !tbaa !20
  %42 = load i32, ptr %12, align 4, !tbaa !20
  %43 = load i32, ptr %11, align 4, !tbaa !20
  %44 = mul nsw i32 %42, %43
  %45 = load i32, ptr %12, align 4, !tbaa !20
  %46 = load i32, ptr %11, align 4, !tbaa !20
  %47 = mul nsw i32 %45, %46
  %48 = mul nsw i32 %44, %47
  %49 = ashr i32 %48, 4
  %50 = load i32, ptr %10, align 4, !tbaa !20
  %51 = add i32 %50, %49
  store i32 %51, ptr %10, align 4, !tbaa !20
  call void @llvm.lifetime.end.p0(i64 4, ptr %12) #7
  call void @llvm.lifetime.end.p0(i64 4, ptr %11) #7
  br label %52

52:                                               ; preds = %16
  %53 = load i32, ptr %9, align 4, !tbaa !20
  %54 = add nsw i32 %53, 1
  store i32 %54, ptr %9, align 4, !tbaa !20
  br label %13, !llvm.loop !24

55:                                               ; preds = %13
  %56 = load i32, ptr %10, align 4, !tbaa !20
  %57 = lshr i32 %56, 2
  call void @llvm.lifetime.end.p0(i64 4, ptr %10) #7
  call void @llvm.lifetime.end.p0(i64 4, ptr %9) #7
  ret i32 %57
}