; Function Attrs: nofree norecurse nosync nounwind memory(argmem: read) uwtable
define internal range(i32 0, 1073741824) i32 @try_8x8basis_c(ptr noundef readonly captures(none) %0, ptr noundef readonly captures(none) %1, ptr noundef readonly captures(none) %2, i32 noundef %3) #1 {
  br label %5

5:                                                ; preds = %4, %5
  %indvars.iv = phi i64 [ 0, %4 ], [ %indvars.iv.next, %5 ]
  %.01516 = phi i32 [ 0, %4 ], [ %23, %5 ]
  %6 = getelementptr inbounds nuw i16, ptr %0, i64 %indvars.iv
  %7 = load i16, ptr %6, align 2, !tbaa !14
  %8 = sext i16 %7 to i32
  %9 = getelementptr inbounds nuw i16, ptr %2, i64 %indvars.iv
  %10 = load i16, ptr %9, align 2, !tbaa !14
  %11 = sext i16 %10 to i32
  %12 = mul nsw i32 %3, %11
  %13 = add nsw i32 %12, 512
  %14 = ashr i32 %13, 10
  %15 = add nsw i32 %14, %8
  %16 = getelementptr inbounds nuw i16, ptr %1, i64 %indvars.iv
  %17 = load i16, ptr %16, align 2, !tbaa !14
  %18 = sext i16 %17 to i32
  %19 = ashr i32 %15, 6
  %20 = mul nsw i32 %19, %18
  %21 = mul nsw i32 %20, %20
  %22 = lshr i32 %21, 4
  %23 = add i32 %22, %.01516
  %indvars.iv.next = add nuw nsw i64 %indvars.iv, 1
  %exitcond.not = icmp eq i64 %indvars.iv.next, 64
  br i1 %exitcond.not, label %24, label %5, !llvm.loop !16

24:                                               ; preds = %5
  %25 = lshr i32 %23, 2
  ret i32 %25
}